Certificate:
    Data:
        Version: 3 (0x2)
        Serial Number: 0 (0x0)
        Signature Algorithm: sha1WithRSAEncryption
        Issuer: DC=me, DC=nmz, O=NMZ, OU=NMZ INTCA, CN=NMZ Intermediate CA
        Validity
            Not Before: Aug 13 00:34:12 2019 GMT
            Not After : Aug 12 00:34:12 2021 GMT
        Subject: DC=me, DC=nmz, O=NMZ, OU=test, CN=test.nmz.me
        Subject Public Key Info:
            Public Key Algorithm: rsaEncryption
                RSA Public-Key: (2048 bit)
                Modulus:
                    00:cb:e7:e6:7c:17:dc:d4:a6:a9:a1:b9:ab:c2:19:
                    5b:e1:20:c9:e4:c7:39:8e:93:cd:8e:51:71:a8:67:
                    15:f2:f7:2b:9a:a8:18:f2:1b:bb:b8:e2:3a:e3:10:
                    84:2a:cc:38:56:7d:34:4b:80:3f:b5:96:d7:9c:63:
                    3c:7d:8f:c8:76:50:7a:93:09:39:d9:f2:02:26:72:
                    48:8a:d2:85:11:f4:13:8e:b6:cc:df:db:9b:79:99:
                    2b:f1:e9:9b:25:f4:83:f6:25:b3:eb:6d:39:e1:40:
                    21:9c:c6:ee:68:e6:6f:29:db:82:8f:17:74:86:f0:
                    3c:83:f8:f0:9d:bd:fd:61:56:5f:b8:a7:a8:8c:21:
                    94:80:51:a0:92:8c:40:ca:33:36:c7:1f:36:4b:ba:
                    01:fb:71:fa:c2:4c:c8:4e:ba:c1:71:a9:94:4f:d9:
                    55:54:f8:85:f9:bf:ef:22:94:f8:da:ee:da:e6:4a:
                    e5:19:b0:e3:2c:cb:2f:f0:29:c5:86:a4:43:22:3e:
                    94:1c:7c:4c:b2:e6:89:73:5c:f0:0c:45:90:f0:b7:
                    4f:b0:e5:b1:fb:b4:15:b2:68:24:d1:d6:3b:fd:2e:
                    bd:88:12:9c:60:36:69:3a:1a:3a:57:74:80:c4:6d:
                    28:48:4f:d4:5d:60:01:e5:c3:39:04:ab:7d:a0:73:
                    90:55
                Exponent: 65537 (0x10001)
        X509v3 extensions:
            X509v3 Key Usage: critical
                Digital Signature, Key Encipherment
            X509v3 Basic Constraints: 
                CA:FALSE
            X509v3 Extended Key Usage: 
                TLS Web Server Authentication, TLS Web Client Authentication
            X509v3 Subject Key Identifier: 
                54:A2:35:D4:49:B9:67:2B:61:8F:16:08:85:B7:68:11:E4:21:A9:63
            X509v3 Authority Key Identifier: 
                keyid:6E:6B:78:7D:57:53:F0:86:CE:E8:C8:25:50:1A:ED:FB:2D:2D:60:6F

            X509v3 Subject Alternative Name: 
                DNS:test.nmz.me
    Signature Algorithm: sha1WithRSAEncryption
         51:47:bd:30:ea:62:03:d0:41:e0:9f:36:c5:a2:e1:b9:77:f8:
         80:bb:e3:8b:b3:7a:e0:4c:fd:22:9e:1f:ff:3b:b1:b5:9b:d3:
         b8:74:74:ff:16:47:0a:d3:58:83:06:8a:4f:35:ce:90:65:90:
         9b:5d:77:b1:c6:96:4a:4f:d1:0c:98:f4:d1:69:a6:ab:a8:2d:
         48:23:47:bd:17:84:7c:db:02:b1:81:00:ce:6c:94:40:0a:42:
         e8:26:97:02:01:14:de:a0:77:d0:8e:a9:e1:14:97:0d:64:78:
         7b:15:2d:2d:68:26:cf:00:39:ce:81:1a:da:4b:d3:65:12:be:
         c1:02:2b:43:18:ff:7d:4f:12:fc:5a:25:0b:60:dd:b1:ed:18:
         58:a6:0d:f0:c7:af:ce:f9:20:ac:16:57:f3:c4:28:01:45:b0:
         1d:53:e7:3d:ce:8f:af:02:b2:2f:9a:4e:93:50:74:d3:b4:cc:
         07:5d:a9:3c:dc:6c:e7:43:30:61:44:de:3c:66:59:cd:52:cf:
         9b:b7:1f:5d:b4:cb:50:43:e4:5b:e7:25:d0:aa:62:a3:0c:8c:
         b3:8c:61:5b:f7:e2:43:d4:99:90:8c:9f:f8:85:cd:91:ab:31:
         a6:7f:dd:b2:5f:c0:e5:56:cd:83:0b:ba:1f:19:95:55:8e:fd:
         c8:60:27:ba:07:61:cb:d1:a1:cc:34:9a:63:70:1b:ab:37:32:
         2c:4e:20:4a:ab:8c:f0:64:95:72:79:6f:d1:c9:e9:96:52:8a:
         a8:dc:45:22:c6:e6:aa:03:06:e4:ec:56:68:37:8d:7d:53:04:
         53:f4:01:9f:c5:84:52:59:b3:fc:07:5e:08:de:2c:5d:0d:c1:
         73:50:0d:5b:f5:35:61:7b:b6:3a:17:77:33:35:fd:19:26:bf:
         c5:b1:77:1b:59:3f:ab:23:4a:ba:1b:fc:f8:59:80:69:c2:0f:
         b5:af:c2:d5:74:21:29:23:8f:cc:b8:9b:9a:fa:b5:2c:24:93:
         fc:03:1b:6b:1b:31:83:31:8b:ff:39:3f:87:af:dc:a6:9b:6e:
         cc:f1:ae:73:e8:3d:56:58:e4:f6:8b:6f:2c:1a:86:c0:08:a3:
         7d:4c:c4:04:d1:19:f7:f3:fc:3e:08:37:9e:a6:7a:0a:54:8a:
         62:fb:d0:fe:39:a0:fc:2c:44:0e:4f:c3:9e:44:8a:7f:54:bc:
         1a:fc:18:a9:ed:0f:51:05:17:a2:d4:d7:6a:44:b9:cd:53:bd:
         13:c3:de:8f:24:7f:f1:51:73:d4:ca:a2:29:41:99:07:a4:6e:
         61:e8:ed:10:f0:96:9f:51:b8:4f:cf:a6:e7:95:bb:84:be:cb:
         d6:89:6a:ac:de:af:28:e5
-----BEGIN CERTIFICATE-----
MIIE1jCCAr6gAwIBAgIBADANBgkqhkiG9w0BAQUFADBpMRIwEAYKCZImiZPyLGQB
GRYCbWUxEzARBgoJkiaJk/IsZAEZFgNubXoxDDAKBgNVBAoMA05NWjESMBAGA1UE
CwwJTk1aIElOVENBMRwwGgYDVQQDDBNOTVogSW50ZXJtZWRpYXRlIENBMB4XDTE5
MDgxMzAwMzQxMloXDTIxMDgxMjAwMzQxMlowXDESMBAGCgmSJomT8ixkARkWAm1l
MRMwEQYKCZImiZPyLGQBGRYDbm16MQwwCgYDVQQKDANOTVoxDTALBgNVBAsMBHRl
c3QxFDASBgNVBAMMC3Rlc3Qubm16Lm1lMIIBIjANBgkqhkiG9w0BAQEFAAOCAQ8A
MIIBCgKCAQEAy+fmfBfc1Kapobmrwhlb4SDJ5Mc5jpPNjlFxqGcV8vcrmqgY8hu7
uOI64xCEKsw4Vn00S4A/tZbXnGM8fY/IdlB6kwk52fICJnJIitKFEfQTjrbM39ub
eZkr8embJfSD9iWz62054UAhnMbuaOZvKduCjxd0hvA8g/jwnb39YVZfuKeojCGU
gFGgkoxAyjM2xx82S7oB+3H6wkzITrrBcamUT9lVVPiF+b/vIpT42u7a5krlGbDj
LMsv8CnFhqRDIj6UHHxMsuaJc1zwDEWQ8LdPsOWx+7QVsmgk0dY7/S69iBKcYDZp
Oho6V3SAxG0oSE/UXWAB5cM5BKt9oHOQVQIDAQABo4GVMIGSMA4GA1UdDwEB/wQE
AwIFoDAJBgNVHRMEAjAAMB0GA1UdJQQWMBQGCCsGAQUFBwMBBggrBgEFBQcDAjAd
BgNVHQ4EFgQUVKI11Em5ZythjxYIhbdoEeQhqWMwHwYDVR0jBBgwFoAUbmt4fVdT
8IbO6MglUBrt+y0tYG8wFgYDVR0RBA8wDYILdGVzdC5ubXoubWUwDQYJKoZIhvcN
AQEFBQADggIBAFFHvTDqYgPQQeCfNsWi4bl3+IC744uzeuBM/SKeH/87sbWb07h0
dP8WRwrTWIMGik81zpBlkJtdd7HGlkpP0QyY9NFppquoLUgjR70XhHzbArGBAM5s
lEAKQugmlwIBFN6gd9COqeEUlw1keHsVLS1oJs8AOc6BGtpL02USvsECK0MY/31P
EvxaJQtg3bHtGFimDfDHr875IKwWV/PEKAFFsB1T5z3Oj68Csi+aTpNQdNO0zAdd
qTzcbOdDMGFE3jxmWc1Sz5u3H120y1BD5FvnJdCqYqMMjLOMYVv34kPUmZCMn/iF
zZGrMaZ/3bJfwOVWzYMLuh8ZlVWO/chgJ7oHYcvRocw0mmNwG6s3MixOIEqrjPBk
lXJ5b9HJ6ZZSiqjcRSLG5qoDBuTsVmg3jX1TBFP0AZ/FhFJZs/wHXgjeLF0NwXNQ
DVv1NWF7tjoXdzM1/Rkmv8WxdxtZP6sjSrob/PhZgGnCD7WvwtV0ISkjj8y4m5r6
tSwkk/wDG2sbMYMxi/85P4ev3KabbszxrnPoPVZY5PaLbywahsAIo31MxATRGffz
/D4IN56megpUimL70P45oPwsRA5Pw55Ein9UvBr8GKntD1EFF6LU12pEuc1TvRPD
3o8kf/FRc9TKoilBmQekbmHo7RDwlp9RuE/PpueVu4S+y9aJaqzeryjl
-----END CERTIFICATE-----
